target datalayout = "e-m:e-p270:32:32-p271:32:32-p272:64:64-i64:64-i128:128-f80:128-n8:16:32:64-S128"
target triple = "x86_64-pc-linux-gnu"

%"class.zxing::ResultPoint" = type { %"class.zxing::Counted.base", float, float, [4 x i8] }
%"class.zxing::Counted.base" = type <{ ptr, i32 }>
%"class.zxing::Counted" = type <{ ptr, i32, [4 x i8] }>

@_ZTVN5zxing7CountedE = linkonce_odr hidden unnamed_addr constant { [4 x ptr] } { [4 x ptr] [ptr null, ptr @_ZTIN5zxing7CountedE, ptr @_ZN5zxing7CountedD2Ev, ptr @_ZN5zxing7CountedD0Ev] }, comdat, align 8

; Function Attrs: mustprogress nounwind uwtable
define linkonce_odr hidden void @_ZN5zxing7CountedC2Ev(ptr noundef nonnull align 8 dereferenceable(12) %0) unnamed_addr #1 comdat align 2 {
  %2 = alloca ptr, align 8
  store ptr %0, ptr %2, align 8, !tbaa !16
  %3 = load ptr, ptr %2, align 8
  store ptr getelementptr inbounds inrange(-16, 16) ({ [4 x ptr] }, ptr @_ZTVN5zxing7CountedE, i32 0, i32 0, i32 2), ptr %3, align 8, !tbaa !8
  %4 = getelementptr inbounds nuw %"class.zxing::Counted", ptr %3, i32 0, i32 1
  store i32 0, ptr %4, align 8, !tbaa !18
  ret void
}

; Function Attrs: mustprogress uwtable
define hidden void @_ZN5zxing11ResultPointC2Eff(ptr noundef nonnull align 8 dereferenceable(20) %0, float noundef %1, float noundef %2) unnamed_addr #0 align 2 {
  %4 = alloca ptr, align 8
  %5 = alloca float, align 4
  %6 = alloca float, align 4
  store ptr %0, ptr %4, align 8, !tbaa !3
  store float %1, ptr %5, align 4, !tbaa !19
  store float %2, ptr %6, align 4, !tbaa !19
  %7 = load ptr, ptr %4, align 8
  call void @_ZN5zxing7CountedC2Ev(ptr noundef nonnull align 8 dereferenceable(12) %7)
  store ptr getelementptr inbounds inrange(-16, 48) ({ [8 x ptr] }, ptr @_ZTVN5zxing11ResultPointE, i32 0, i32 0, i32 2), ptr %7, align 8, !tbaa !8
  %8 = getelementptr inbounds nuw %"class.zxing::ResultPoint", ptr %7, i32 0, i32 1
  %9 = load float, ptr %5, align 4, !tbaa !19
  store float %9, ptr %8, align 4, !tbaa !10
  %10 = getelementptr inbounds nuw %"class.zxing::ResultPoint", ptr %7, i32 0, i32 2
  %11 = load float, ptr %6, align 4, !tbaa !19
  store float %11, ptr %10, align 8, !tbaa !15
  ret void
}